target datalayout = "e-m:e-p270:32:32-p271:32:32-p272:64:64-i64:64-i128:128-f80:128-n8:16:32:64-S128"
target triple = "x86_64-unknown-linux-gnu"

%"class.cvc5::internal::FatalStream" = type { i8 }
%"class.cvc5::internal::theory::arith::linear::ValueCollection" = type { ptr, ptr, ptr, ptr }

@.str = private unnamed_addr constant [126 x i8] c"generated/home/dtcxzyw/WorkSpace/Projects/compilers/llvm-opt-benchmark/bench/cvc5/cvc5/src/theory/arith/linear/constraint.cpp\00", align 1
@.str.15 = private unnamed_addr constant [26 x i8] c"Unreachable code reached \00", align 1
@__PRETTY_FUNCTION__._ZN4cvc58internal6theory5arith6linear15ValueCollection6removeENS3_14ConstraintTypeE = private unnamed_addr constant [84 x i8] c"void cvc5::internal::theory::arith::linear::ValueCollection::remove(ConstraintType)\00", align 1

; Function Attrs: mustprogress uwtable
define hidden void @_ZN4cvc58internal6theory5arith6linear15ValueCollection6removeENS3_14ConstraintTypeE(ptr noundef nonnull align 8 dereferenceable(32) %this, i32 noundef %t) #5 align 2 personality ptr @__gxx_personality_v0 {
entry:
  %this.addr = alloca ptr, align 8
  %t.addr = alloca i32, align 4
  %ref.tmp = alloca %"class.cvc5::internal::FatalStream", align 1
  %exn.slot = alloca ptr, align 8
  %ehselector.slot = alloca i32, align 4
  store ptr %this, ptr %this.addr, align 8
  store i32 %t, ptr %t.addr, align 4
  %this1 = load ptr, ptr %this.addr, align 8
  %0 = load i32, ptr %t.addr, align 4
  switch i32 %0, label %sw.default [
    i32 0, label %sw.bb
    i32 1, label %sw.bb2
    i32 2, label %sw.bb3
    i32 3, label %sw.bb4
  ]

sw.bb:                                            ; preds = %entry
  %d_lowerBound = getelementptr inbounds %"class.cvc5::internal::theory::arith::linear::ValueCollection", ptr %this1, i32 0, i32 0
  store ptr null, ptr %d_lowerBound, align 8
  br label %sw.epilog

sw.bb2:                                           ; preds = %entry
  %d_equality = getelementptr inbounds %"class.cvc5::internal::theory::arith::linear::ValueCollection", ptr %this1, i32 0, i32 2
  store ptr null, ptr %d_equality, align 8
  br label %sw.epilog

sw.bb3:                                           ; preds = %entry
  %d_upperBound = getelementptr inbounds %"class.cvc5::internal::theory::arith::linear::ValueCollection", ptr %this1, i32 0, i32 1
  store ptr null, ptr %d_upperBound, align 8
  br label %sw.epilog

sw.bb4:                                           ; preds = %entry
  %d_disequality = getelementptr inbounds %"class.cvc5::internal::theory::arith::linear::ValueCollection", ptr %this1, i32 0, i32 3
  store ptr null, ptr %d_disequality, align 8
  br label %sw.epilog

sw.default:                                       ; preds = %entry
  call void @_ZN4cvc58internal11FatalStreamC1EPKcS3_i(ptr noundef nonnull align 1 dereferenceable(1) %ref.tmp, ptr noundef @__PRETTY_FUNCTION__._ZN4cvc58internal6theory5arith6linear15ValueCollection6removeENS3_14ConstraintTypeE, ptr noundef @.str, i32 noundef 386)
  %call = invoke noundef nonnull align 8 dereferenceable(8) ptr @_ZN4cvc58internal11FatalStream6streamEv(ptr noundef nonnull align 1 dereferenceable(1) %ref.tmp)
          to label %invoke.cont unwind label %lpad

invoke.cont:                                      ; preds = %sw.default
  %call6 = invoke noundef nonnull align 8 dereferenceable(8) ptr @_ZStlsISt11char_traitsIcEERSt13basic_ostreamIcT_ES5_PKc(ptr noundef nonnull align 8 dereferenceable(8) %call, ptr noundef @.str.15)
          to label %invoke.cont5 unwind label %lpad

invoke.cont5:                                     ; preds = %invoke.cont
  call void @_ZN4cvc58internal11FatalStreamD1Ev(ptr noundef nonnull align 1 dereferenceable(1) %ref.tmp) #16
  unreachable

lpad:                                             ; preds = %invoke.cont, %sw.default
  %1 = landingpad { ptr, i32 }
          cleanup
  %2 = extractvalue { ptr, i32 } %1, 0
  store ptr %2, ptr %exn.slot, align 8
  %3 = extractvalue { ptr, i32 } %1, 1
  store i32 %3, ptr %ehselector.slot, align 4
  call void @_ZN4cvc58internal11FatalStreamD1Ev(ptr noundef nonnull align 1 dereferenceable(1) %ref.tmp) #16
  unreachable

4:                                                ; No predecessors!
  br label %eh.resume

sw.epilog:                                        ; preds = %sw.bb4, %sw.bb3, %sw.bb2, %sw.bb
  ret void

eh.resume:                                        ; preds = %4
  %exn = load ptr, ptr %exn.slot, align 8
  %sel = load i32, ptr %ehselector.slot, align 4
  %lpad.val = insertvalue { ptr, i32 } poison, ptr %exn, 0
  %lpad.val7 = insertvalue { ptr, i32 } %lpad.val, i32 %sel, 1
  resume { ptr, i32 } %lpad.val7
}