; Function Attrs: mustprogress uwtable
define hidden void @_ZN4cvc58internal6theory5arith6linear15ValueCollection6removeENS3_14ConstraintTypeE(ptr nocapture noundef nonnull writeonly align 8 dereferenceable(32) %this, i32 noundef %t) local_unnamed_addr #4 align 2 personality ptr @__gxx_personality_v0 {
entry:
  %ref.tmp = alloca %"class.cvc5::internal::FatalStream", align 1
  switch i32 %t, label %sw.default [
    i32 0, label %sw.epilog
    i32 1, label %sw.bb2
    i32 2, label %sw.bb3
    i32 3, label %sw.bb4
  ]

sw.bb2:                                           ; preds = %entry
  %d_equality = getelementptr inbounds i8, ptr %this, i64 16
  br label %sw.epilog

sw.bb3:                                           ; preds = %entry
  %d_upperBound = getelementptr inbounds i8, ptr %this, i64 8
  br label %sw.epilog

sw.bb4:                                           ; preds = %entry
  %d_disequality = getelementptr inbounds i8, ptr %this, i64 24
  br label %sw.epilog

sw.default:                                       ; preds = %entry
  call void @_ZN4cvc58internal11FatalStreamC1EPKcS3_i(ptr noundef nonnull align 1 dereferenceable(1) %ref.tmp, ptr noundef nonnull @__PRETTY_FUNCTION__._ZN4cvc58internal6theory5arith6linear15ValueCollection6removeENS3_14ConstraintTypeE, ptr noundef nonnull @.str, i32 noundef 386)
  %call = invoke noundef nonnull align 8 dereferenceable(8) ptr @_ZN4cvc58internal11FatalStream6streamEv(ptr noundef nonnull align 1 dereferenceable(1) %ref.tmp)
          to label %invoke.cont unwind label %lpad

invoke.cont:                                      ; preds = %sw.default
  %call6 = invoke noundef nonnull align 8 dereferenceable(8) ptr @_ZStlsISt11char_traitsIcEERSt13basic_ostreamIcT_ES5_PKc(ptr noundef nonnull align 8 dereferenceable(8) %call, ptr noundef nonnull @.str.15)
          to label %invoke.cont5 unwind label %lpad

invoke.cont5:                                     ; preds = %invoke.cont
  call void @_ZN4cvc58internal11FatalStreamD1Ev(ptr noundef nonnull align 1 dereferenceable(1) %ref.tmp) #23
  unreachable

lpad:                                             ; preds = %invoke.cont, %sw.default
  %0 = landingpad { ptr, i32 }
          cleanup
  call void @_ZN4cvc58internal11FatalStreamD1Ev(ptr noundef nonnull align 1 dereferenceable(1) %ref.tmp) #23
  unreachable

sw.epilog:                                        ; preds = %entry, %sw.bb4, %sw.bb3, %sw.bb2
  %d_disequality.sink = phi ptr [ %d_disequality, %sw.bb4 ], [ %d_upperBound, %sw.bb3 ], [ %d_equality, %sw.bb2 ], [ %this, %entry ]
  store ptr null, ptr %d_disequality.sink, align 8
  ret void
}